; Function Attrs: nounwind uwtable
define void @Java_sun_nio_fs_UnixNativeDispatcher_close0(ptr noundef %0, ptr nocapture noundef readnone %1, i32 noundef %2) local_unnamed_addr #0 {
  %4 = tail call i32 @close(i32 noundef %2) #11
  %5 = icmp eq i32 %4, -1
  br i1 %5, label %6, label %throwUnixException.exit

6:                                                ; preds = %3
  %7 = tail call ptr @__errno_location() #12
  %8 = load i32, ptr %7, align 4
  %.not = icmp eq i32 %8, 4
  br i1 %.not, label %throwUnixException.exit, label %9

9:                                                ; preds = %6
  %10 = tail call ptr (ptr, ptr, ptr, ...) @JNU_NewObjectByName(ptr noundef %0, ptr noundef nonnull @.str.46, ptr noundef nonnull @.str.47, i32 noundef %8) #11
  %.not.i = icmp eq ptr %10, null
  br i1 %.not.i, label %throwUnixException.exit, label %11

11:                                               ; preds = %9
  %12 = load ptr, ptr %0, align 8
  %13 = getelementptr inbounds i8, ptr %12, i64 104
  %14 = load ptr, ptr %13, align 8
  %15 = tail call i32 %14(ptr noundef nonnull %0, ptr noundef nonnull %10) #11
  br label %throwUnixException.exit

throwUnixException.exit:                          ; preds = %11, %9, %6, %3
  ret void
}